target datalayout = "e-m:e-p270:32:32-p271:32:32-p272:64:64-i64:64-i128:128-f80:128-n8:16:32:64-S128"
target triple = "x86_64-pc-linux-gnu"

%"class.std::__cxx11::basic_string" = type { %"struct.std::__cxx11::basic_string<char>::_Alloc_hider", i64, %union.anon }
%"struct.std::__cxx11::basic_string<char>::_Alloc_hider" = type { ptr }
%union.anon = type { i64, [8 x i8] }
%"struct.open_spiel::dou_dizhu::TrioCombParams" = type { i32, i32, i32, i32 }
%"struct.std::array" = type { [15 x i32] }
%"class.absl::debian2::Span.15" = type { ptr, i64 }

@.str.4 = private unnamed_addr constant [144 x i8] c"generated/home/dtcxzyw/WorkSpace/Projects/compilers/llvm-opt-benchmark/bench/openspiel/open_spiel/open_spiel/games/dou_dizhu/dou_dizhu_utils.cc\00", align 1
@.str.5 = private unnamed_addr constant [2 x i8] c":\00", align 1
@.str.6 = private unnamed_addr constant [2 x i8] c" \00", align 1
@.str.9 = private unnamed_addr constant [4 x i8] c" = \00", align 1
@.str.18 = private unnamed_addr constant [8 x i8] c"\0Aaction\00", align 1
@.str.38 = private unnamed_addr constant [38 x i8] c"action >= kAirplaneWithSoloActionBase\00", align 1
@.str.39 = private unnamed_addr constant [33 x i8] c", kAirplaneWithSoloActionBase = \00", align 1
@.str.40 = private unnamed_addr constant [25 x i8] c"action < kBombActionBase\00", align 1
@.str.41 = private unnamed_addr constant [21 x i8] c", kBombActionBase = \00", align 1
@.str.44 = private unnamed_addr constant [2 x i8] c")\00", align 1
@.str.53 = private unnamed_addr constant [13 x i8] c" CHECK_TRUE(\00", align 1
@.str.54 = private unnamed_addr constant [6 x i8] c"found\00", align 1

; Function Attrs: mustprogress nounwind uwtable
define linkonce_odr noundef ptr @_ZNSt14__array_traitsIiLm15EE6_S_ptrERA15_Ki(ptr noundef nonnull align 4 dereferenceable(60) %0) #4 comdat align 2 {
  %2 = alloca ptr, align 8
  store ptr %0, ptr %2, align 8
  %3 = load ptr, ptr %2, align 8
  %4 = getelementptr inbounds [15 x i32], ptr %3, i64 0, i64 0
  ret ptr %4
}

; Function Attrs: mustprogress nounwind willreturn memory(none) uwtable
define linkonce_odr noundef ptr @_ZNSt5arrayIiLm15EE4dataEv(ptr noundef nonnull align 4 dereferenceable(60) %0) #11 comdat align 2 {
  %2 = alloca ptr, align 8
  store ptr %0, ptr %2, align 8
  %3 = load ptr, ptr %2, align 8
  %4 = getelementptr inbounds nuw %"struct.std::array", ptr %3, i32 0, i32 0
  %5 = call noundef ptr @_ZNSt14__array_traitsIiLm15EE6_S_ptrERA15_Ki(ptr noundef nonnull align 4 dereferenceable(60) %4) #3
  ret ptr %5
}

; Function Attrs: mustprogress nounwind uwtable
define linkonce_odr void @_ZN4absl7debian24SpanIiEC2EPim(ptr noundef nonnull align 8 dereferenceable(16) %0, ptr noundef %1, i64 noundef %2) unnamed_addr #4 comdat align 2 {
  %4 = alloca ptr, align 8
  %5 = alloca ptr, align 8
  %6 = alloca i64, align 8
  store ptr %0, ptr %4, align 8
  store ptr %1, ptr %5, align 8
  store i64 %2, ptr %6, align 8
  %7 = load ptr, ptr %4, align 8
  %8 = getelementptr inbounds nuw %"class.absl::debian2::Span.15", ptr %7, i32 0, i32 0
  %9 = load ptr, ptr %5, align 8
  store ptr %9, ptr %8, align 8
  %10 = getelementptr inbounds nuw %"class.absl::debian2::Span.15", ptr %7, i32 0, i32 1
  %11 = load i64, ptr %6, align 8
  store i64 %11, ptr %10, align 8
  ret void
}

; Function Attrs: mustprogress nounwind uwtable
define linkonce_odr noundef ptr @_ZN4absl7debian213span_internal11GetDataImplISt5arrayIiLm15EEEEDTcldtfp_4dataEERT_c(ptr noundef nonnull align 4 dereferenceable(60) %0, i8 noundef signext %1) #4 comdat {
  %3 = alloca ptr, align 8
  %4 = alloca i8, align 1
  store ptr %0, ptr %3, align 8
  store i8 %1, ptr %4, align 1
  %5 = load ptr, ptr %3, align 8
  %6 = call noundef ptr @_ZNSt5arrayIiLm15EE4dataEv(ptr noundef nonnull align 4 dereferenceable(60) %5) #16
  ret ptr %6
}

; Function Attrs: mustprogress nounwind uwtable
define linkonce_odr { ptr, i64 } @_ZN4absl7debian28MakeSpanITpTnRiJEiEENS0_4SpanIT0_EEPS4_m(ptr noundef %0, i64 noundef %1) #4 comdat {
  %3 = alloca %"class.absl::debian2::Span.15", align 8
  %4 = alloca ptr, align 8
  %5 = alloca i64, align 8
  store ptr %0, ptr %4, align 8
  store i64 %1, ptr %5, align 8
  %6 = load ptr, ptr %4, align 8
  %7 = load i64, ptr %5, align 8
  call void @_ZN4absl7debian24SpanIiEC2EPim(ptr noundef nonnull align 8 dereferenceable(16) %3, ptr noundef %6, i64 noundef %7) #3
  %8 = load { ptr, i64 }, ptr %3, align 8
  ret { ptr, i64 } %8
}

; Function Attrs: mustprogress nounwind willreturn memory(none) uwtable
define linkonce_odr noundef i64 @_ZNKSt5arrayIiLm15EE4sizeEv(ptr noundef nonnull align 4 dereferenceable(60) %0) #11 comdat align 2 {
  %2 = alloca ptr, align 8
  store ptr %0, ptr %2, align 8
  ret i64 15
}

; Function Attrs: mustprogress nounwind uwtable
define linkonce_odr noundef ptr @_ZN4absl7debian213span_internal7GetDataISt5arrayIiLm15EEEEDTcl11GetDataImplfp_Li0EEERT_(ptr noundef nonnull align 4 dereferenceable(60) %0) #4 comdat {
  %2 = alloca ptr, align 8
  store ptr %0, ptr %2, align 8
  %3 = load ptr, ptr %2, align 8
  %4 = call noundef ptr @_ZN4absl7debian213span_internal11GetDataImplISt5arrayIiLm15EEEEDTcldtfp_4dataEERT_c(ptr noundef nonnull align 4 dereferenceable(60) %3, i8 noundef signext 0) #3
  ret ptr %4
}

; Function Attrs: mustprogress nounwind uwtable
define linkonce_odr noundef nonnull align 4 dereferenceable(4) ptr @_ZNSt14__array_traitsIiLm15EE6_S_refERA15_Kim(ptr noundef nonnull align 4 dereferenceable(60) %0, i64 noundef %1) #4 comdat align 2 {
  %3 = alloca ptr, align 8
  %4 = alloca i64, align 8
  store ptr %0, ptr %3, align 8
  store i64 %1, ptr %4, align 8
  %5 = load ptr, ptr %3, align 8
  %6 = load i64, ptr %4, align 8
  %7 = getelementptr inbounds [15 x i32], ptr %5, i64 0, i64 %6
  ret ptr %7
}

; Function Attrs: mustprogress nounwind uwtable
define linkonce_odr { ptr, i64 } @_ZN4absl7debian28MakeSpanITpTnRiJESt5arrayIiLm15EEEEDTclsr4abslE8MakeSpanclsr13span_internalE7GetDatafp_Ecldtfp_4sizeEEERT0_(ptr noundef nonnull align 4 dereferenceable(60) %0) #4 comdat {
  %2 = alloca %"class.absl::debian2::Span.15", align 8
  %3 = alloca ptr, align 8
  store ptr %0, ptr %3, align 8
  %4 = load ptr, ptr %3, align 8
  %5 = call noundef ptr @_ZN4absl7debian213span_internal7GetDataISt5arrayIiLm15EEEEDTcl11GetDataImplfp_Li0EEERT_(ptr noundef nonnull align 4 dereferenceable(60) %4) #3
  %6 = load ptr, ptr %3, align 8
  %7 = call noundef i64 @_ZNKSt5arrayIiLm15EE4sizeEv(ptr noundef nonnull align 4 dereferenceable(60) %6) #16
  %8 = call { ptr, i64 } @_ZN4absl7debian28MakeSpanITpTnRiJEiEENS0_4SpanIT0_EEPS4_m(ptr noundef %5, i64 noundef %7) #3
  %9 = getelementptr inbounds nuw { ptr, i64 }, ptr %2, i32 0, i32 0
  %10 = extractvalue { ptr, i64 } %8, 0
  store ptr %10, ptr %9, align 8
  %11 = getelementptr inbounds nuw { ptr, i64 }, ptr %2, i32 0, i32 1
  %12 = extractvalue { ptr, i64 } %8, 1
  store i64 %12, ptr %11, align 8
  %13 = load { ptr, i64 }, ptr %2, align 8
  ret { ptr, i64 } %13
}

; Function Attrs: mustprogress nounwind uwtable
define linkonce_odr noundef nonnull align 4 dereferenceable(4) ptr @_ZNSt5arrayIiLm15EEixEm(ptr noundef nonnull align 4 dereferenceable(60) %0, i64 noundef %1) #4 comdat align 2 {
  %3 = alloca ptr, align 8
  %4 = alloca i64, align 8
  store ptr %0, ptr %3, align 8
  store i64 %1, ptr %4, align 8
  %5 = load ptr, ptr %3, align 8
  %6 = getelementptr inbounds nuw %"struct.std::array", ptr %5, i32 0, i32 0
  %7 = load i64, ptr %4, align 8
  %8 = call noundef nonnull align 4 dereferenceable(4) ptr @_ZNSt14__array_traitsIiLm15EE6_S_refERA15_Kim(ptr noundef nonnull align 4 dereferenceable(60) %6, i64 noundef %7) #3
  ret ptr %8
}

; Function Attrs: mustprogress uwtable
define void @_ZN10open_spiel9dou_dizhu16AirplaneCombHandEi(ptr dead_on_unwind noalias writable sret(%"struct.std::array") align 4 %0, i32 noundef %1) #5 personality ptr @__gxx_personality_v0 {
  %3 = alloca i32, align 4
  %4 = alloca %"struct.std::array", align 4
  %5 = alloca i32, align 4
  %6 = alloca i32, align 4
  %7 = alloca %"class.std::__cxx11::basic_string", align 8
  %8 = alloca i32, align 4
  %9 = alloca ptr, align 8
  %10 = alloca i32, align 4
  %11 = alloca i32, align 4
  %12 = alloca i32, align 4
  %13 = alloca %"class.std::__cxx11::basic_string", align 8
  %14 = alloca i32, align 4
  %15 = alloca %"struct.open_spiel::dou_dizhu::TrioCombParams", align 4
  %16 = alloca i32, align 4
  %17 = alloca i32, align 4
  %18 = alloca i32, align 4
  %19 = alloca i8, align 1
  %20 = alloca %"class.absl::debian2::Span.15", align 8
  %21 = alloca %"class.absl::debian2::Span.15", align 8
  %22 = alloca %"class.std::__cxx11::basic_string", align 8
  %23 = alloca i32, align 4
  store i32 %1, ptr %3, align 4
  call void @llvm.memset.p0.i64(ptr align 4 %0, i8 0, i64 60, i1 false)
  call void @llvm.memset.p0.i64(ptr align 4 %4, i8 0, i64 60, i1 false)
  br label %24

24:                                               ; preds = %2
  %25 = load i32, ptr %3, align 4
  store i32 %25, ptr %5, align 4
  store i32 516, ptr %6, align 4
  %26 = load i32, ptr %5, align 4
  %27 = load i32, ptr %6, align 4
  %28 = icmp sge i32 %26, %27
  br i1 %28, label %35, label %29

29:                                               ; preds = %24
  store i32 685, ptr %8, align 4
  call void @_ZN10open_spiel8internal11SpielStrCatIJRA144_KcRA2_S2_iS6_RA38_S2_RA8_S2_RA4_S2_RiRA33_S2_SD_EEENSt7__cxx1112basic_stringIcSt11char_traitsIcESaIcEEEDpOT_(ptr dead_on_unwind writable sret(%"class.std::__cxx11::basic_string") align 8 %7, ptr noundef nonnull align 1 dereferenceable(144) @.str.4, ptr noundef nonnull align 1 dereferenceable(2) @.str.5, ptr noundef nonnull align 4 dereferenceable(4) %8, ptr noundef nonnull align 1 dereferenceable(2) @.str.6, ptr noundef nonnull align 1 dereferenceable(38) @.str.38, ptr noundef nonnull align 1 dereferenceable(8) @.str.18, ptr noundef nonnull align 1 dereferenceable(4) @.str.9, ptr noundef nonnull align 4 dereferenceable(4) %5, ptr noundef nonnull align 1 dereferenceable(33) @.str.39, ptr noundef nonnull align 4 dereferenceable(4) %6)
  invoke void @_ZN10open_spiel15SpielFatalErrorERKNSt7__cxx1112basic_stringIcSt11char_traitsIcESaIcEEE(ptr noundef nonnull align 8 dereferenceable(32) %7) #14
          to label %30 unwind label %31

30:                                               ; preds = %29
  unreachable

31:                                               ; preds = %29
  %32 = landingpad { ptr, i32 }
          cleanup
  %33 = extractvalue { ptr, i32 } %32, 0
  store ptr %33, ptr %9, align 8
  %34 = extractvalue { ptr, i32 } %32, 1
  store i32 %34, ptr %10, align 4
  call void @_ZNSt7__cxx1112basic_stringIcSt11char_traitsIcESaIcEED1Ev(ptr noundef nonnull align 8 dereferenceable(32) %7) #3
  br label %108

35:                                               ; preds = %24
  br label %36

36:                                               ; preds = %35
  br label %37

37:                                               ; preds = %36
  %38 = load i32, ptr %3, align 4
  store i32 %38, ptr %11, align 4
  store i32 26043, ptr %12, align 4
  %39 = load i32, ptr %11, align 4
  %40 = load i32, ptr %12, align 4
  %41 = icmp slt i32 %39, %40
  br i1 %41, label %48, label %42

42:                                               ; preds = %37
  store i32 686, ptr %14, align 4
  call void @_ZN10open_spiel8internal11SpielStrCatIJRA144_KcRA2_S2_iS6_RA25_S2_RA8_S2_RA4_S2_RiRA21_S2_SD_EEENSt7__cxx1112basic_stringIcSt11char_traitsIcESaIcEEEDpOT_(ptr dead_on_unwind writable sret(%"class.std::__cxx11::basic_string") align 8 %13, ptr noundef nonnull align 1 dereferenceable(144) @.str.4, ptr noundef nonnull align 1 dereferenceable(2) @.str.5, ptr noundef nonnull align 4 dereferenceable(4) %14, ptr noundef nonnull align 1 dereferenceable(2) @.str.6, ptr noundef nonnull align 1 dereferenceable(25) @.str.40, ptr noundef nonnull align 1 dereferenceable(8) @.str.18, ptr noundef nonnull align 1 dereferenceable(4) @.str.9, ptr noundef nonnull align 4 dereferenceable(4) %11, ptr noundef nonnull align 1 dereferenceable(21) @.str.41, ptr noundef nonnull align 4 dereferenceable(4) %12)
  invoke void @_ZN10open_spiel15SpielFatalErrorERKNSt7__cxx1112basic_stringIcSt11char_traitsIcESaIcEEE(ptr noundef nonnull align 8 dereferenceable(32) %13) #14
          to label %43 unwind label %44

43:                                               ; preds = %42
  unreachable

44:                                               ; preds = %42
  %45 = landingpad { ptr, i32 }
          cleanup
  %46 = extractvalue { ptr, i32 } %45, 0
  store ptr %46, ptr %9, align 8
  %47 = extractvalue { ptr, i32 } %45, 1
  store i32 %47, ptr %10, align 4
  call void @_ZNSt7__cxx1112basic_stringIcSt11char_traitsIcESaIcEED1Ev(ptr noundef nonnull align 8 dereferenceable(32) %13) #3
  br label %108

48:                                               ; preds = %37
  br label %49

49:                                               ; preds = %48
  %50 = load i32, ptr %3, align 4
  %51 = call { i64, i64 } @_ZN10open_spiel9dou_dizhu21GetAirplaneCombParamsEi(i32 noundef %50)
  %52 = getelementptr inbounds nuw { i64, i64 }, ptr %15, i32 0, i32 0
  %53 = extractvalue { i64, i64 } %51, 0
  store i64 %53, ptr %52, align 4
  %54 = getelementptr inbounds nuw { i64, i64 }, ptr %15, i32 0, i32 1
  %55 = extractvalue { i64, i64 } %51, 1
  store i64 %55, ptr %54, align 4
  store i32 0, ptr %16, align 4
  br label %56

56:                                               ; preds = %74, %49
  %57 = load i32, ptr %16, align 4
  %58 = getelementptr inbounds nuw %"struct.open_spiel::dou_dizhu::TrioCombParams", ptr %15, i32 0, i32 1
  %59 = load i32, ptr %58, align 4
  %60 = icmp slt i32 %57, %59
  br i1 %60, label %61, label %77

61:                                               ; preds = %56
  %62 = getelementptr inbounds nuw %"struct.open_spiel::dou_dizhu::TrioCombParams", ptr %15, i32 0, i32 0
  %63 = load i32, ptr %62, align 4
  %64 = load i32, ptr %16, align 4
  %65 = add nsw i32 %63, %64
  %66 = sext i32 %65 to i64
  %67 = call noundef nonnull align 4 dereferenceable(4) ptr @_ZNSt5arrayIiLm15EEixEm(ptr noundef nonnull align 4 dereferenceable(60) %4, i64 noundef %66) #3
  store i32 3, ptr %67, align 4
  %68 = getelementptr inbounds nuw %"struct.open_spiel::dou_dizhu::TrioCombParams", ptr %15, i32 0, i32 0
  %69 = load i32, ptr %68, align 4
  %70 = load i32, ptr %16, align 4
  %71 = add nsw i32 %69, %70
  %72 = sext i32 %71 to i64
  %73 = call noundef nonnull align 4 dereferenceable(4) ptr @_ZNSt5arrayIiLm15EEixEm(ptr noundef nonnull align 4 dereferenceable(60) %0, i64 noundef %72) #3
  store i32 3, ptr %73, align 4
  br label %74

74:                                               ; preds = %61
  %75 = load i32, ptr %16, align 4
  %76 = add nsw i32 %75, 1
  store i32 %76, ptr %16, align 4
  br label %56, !llvm.loop !32

77:                                               ; preds = %56
  %78 = getelementptr inbounds nuw %"struct.open_spiel::dou_dizhu::TrioCombParams", ptr %15, i32 0, i32 3
  %79 = load i32, ptr %78, align 4
  store i32 %79, ptr %17, align 4
  store i32 0, ptr %18, align 4
  %80 = getelementptr inbounds nuw %"struct.open_spiel::dou_dizhu::TrioCombParams", ptr %15, i32 0, i32 1
  %81 = load i32, ptr %80, align 4
  %82 = load i32, ptr %17, align 4
  %83 = call { ptr, i64 } @_ZN4absl7debian28MakeSpanITpTnRiJESt5arrayIiLm15EEEEDTclsr4abslE8MakeSpanclsr13span_internalE7GetDatafp_Ecldtfp_4sizeEEERT0_(ptr noundef nonnull align 4 dereferenceable(60) %4) #3
  %84 = getelementptr inbounds nuw { ptr, i64 }, ptr %20, i32 0, i32 0
  %85 = extractvalue { ptr, i64 } %83, 0
  store ptr %85, ptr %84, align 8
  %86 = getelementptr inbounds nuw { ptr, i64 }, ptr %20, i32 0, i32 1
  %87 = extractvalue { ptr, i64 } %83, 1
  store i64 %87, ptr %86, align 8
  %88 = call { ptr, i64 } @_ZN4absl7debian28MakeSpanITpTnRiJESt5arrayIiLm15EEEEDTclsr4abslE8MakeSpanclsr13span_internalE7GetDatafp_Ecldtfp_4sizeEEERT0_(ptr noundef nonnull align 4 dereferenceable(60) %0) #3
  %89 = getelementptr inbounds nuw { ptr, i64 }, ptr %21, i32 0, i32 0
  %90 = extractvalue { ptr, i64 } %88, 0
  store ptr %90, ptr %89, align 8
  %91 = getelementptr inbounds nuw { ptr, i64 }, ptr %21, i32 0, i32 1
  %92 = extractvalue { ptr, i64 } %88, 1
  store i64 %92, ptr %91, align 8
  %93 = getelementptr inbounds nuw %"struct.open_spiel::dou_dizhu::TrioCombParams", ptr %15, i32 0, i32 2
  %94 = load i32, ptr %93, align 4
  %95 = call noundef zeroext i1 @_ZN10open_spiel9dou_dizhu19dfs_airplane_kickerEiiiRiiN4absl7debian24SpanIiEES5_NS0_10KickerTypeE(i32 noundef %81, i32 noundef 0, i32 noundef %82, ptr noundef nonnull align 4 dereferenceable(4) %18, i32 noundef 14, ptr noundef byval(%"class.absl::debian2::Span.15") align 8 %20, ptr noundef byval(%"class.absl::debian2::Span.15") align 8 %21, i32 noundef %94)
  %96 = zext i1 %95 to i8
  store i8 %96, ptr %19, align 1
  br label %97

97:                                               ; preds = %77
  %98 = load i8, ptr %19, align 1
  %99 = trunc i8 %98 to i1
  %100 = xor i1 %99, true
  br i1 %100, label %101, label %107

101:                                              ; preds = %97
  store i32 696, ptr %23, align 4
  call void @_ZN10open_spiel8internal11SpielStrCatIJRA144_KcRA2_S2_iRA13_S2_RA6_S2_S6_EEENSt7__cxx1112basic_stringIcSt11char_traitsIcESaIcEEEDpOT_(ptr dead_on_unwind writable sret(%"class.std::__cxx11::basic_string") align 8 %22, ptr noundef nonnull align 1 dereferenceable(144) @.str.4, ptr noundef nonnull align 1 dereferenceable(2) @.str.5, ptr noundef nonnull align 4 dereferenceable(4) %23, ptr noundef nonnull align 1 dereferenceable(13) @.str.53, ptr noundef nonnull align 1 dereferenceable(6) @.str.54, ptr noundef nonnull align 1 dereferenceable(2) @.str.44)
  invoke void @_ZN10open_spiel15SpielFatalErrorERKNSt7__cxx1112basic_stringIcSt11char_traitsIcESaIcEEE(ptr noundef nonnull align 8 dereferenceable(32) %22) #14
          to label %102 unwind label %103

102:                                              ; preds = %101
  unreachable

103:                                              ; preds = %101
  %104 = landingpad { ptr, i32 }
          cleanup
  %105 = extractvalue { ptr, i32 } %104, 0
  store ptr %105, ptr %9, align 8
  %106 = extractvalue { ptr, i32 } %104, 1
  store i32 %106, ptr %10, align 4
  call void @_ZNSt7__cxx1112basic_stringIcSt11char_traitsIcESaIcEED1Ev(ptr noundef nonnull align 8 dereferenceable(32) %22) #3
  br label %108

107:                                              ; preds = %97
  ret void

108:                                              ; preds = %103, %44, %31
  %109 = load ptr, ptr %9, align 8
  %110 = load i32, ptr %10, align 4
  %111 = insertvalue { ptr, i32 } poison, ptr %109, 0
  %112 = insertvalue { ptr, i32 } %111, i32 %110, 1
  resume { ptr, i32 } %112
}