; Function Attrs: mustprogress uwtable
define void @_ZN10open_spiel9dou_dizhu16AirplaneCombHandEi(ptr dead_on_unwind noalias writable sret(%"struct.std::array") align 4 %0, i32 noundef %1) local_unnamed_addr #4 personality ptr @__gxx_personality_v0 {
  %3 = alloca %"struct.std::array", align 4
  %4 = alloca i32, align 4
  %5 = alloca i32, align 4
  %6 = alloca %"class.std::__cxx11::basic_string", align 8
  %7 = alloca i32, align 4
  %8 = alloca i32, align 4
  %9 = alloca i32, align 4
  %10 = alloca %"class.std::__cxx11::basic_string", align 8
  %11 = alloca i32, align 4
  %12 = alloca i32, align 4
  %13 = alloca %"class.absl::debian2::Span.15", align 8
  %14 = alloca %"class.absl::debian2::Span.15", align 8
  %15 = alloca %"class.std::__cxx11::basic_string", align 8
  %16 = alloca i32, align 4
  tail call void @llvm.memset.p0.i64(ptr noundef nonnull align 4 dereferenceable(60) %0, i8 0, i64 60, i1 false)
  call void @llvm.memset.p0.i64(ptr noundef nonnull align 4 dereferenceable(60) %3, i8 0, i64 60, i1 false)
  store i32 %1, ptr %4, align 4
  store i32 516, ptr %5, align 4
  %17 = icmp sgt i32 %1, 515
  br i1 %17, label %22, label %18

18:                                               ; preds = %2
  store i32 685, ptr %7, align 4
  call void @_ZN10open_spiel8internal11SpielStrCatIJRA144_KcRA2_S2_iS6_RA38_S2_RA8_S2_RA4_S2_RiRA33_S2_SD_EEENSt7__cxx1112basic_stringIcSt11char_traitsIcESaIcEEEDpOT_(ptr dead_on_unwind nonnull writable sret(%"class.std::__cxx11::basic_string") align 8 %6, ptr noundef nonnull align 1 dereferenceable(144) @.str.4, ptr noundef nonnull align 1 dereferenceable(2) @.str.5, ptr noundef nonnull align 4 dereferenceable(4) %7, ptr noundef nonnull align 1 dereferenceable(2) @.str.6, ptr noundef nonnull align 1 dereferenceable(38) @.str.38, ptr noundef nonnull align 1 dereferenceable(8) @.str.18, ptr noundef nonnull align 1 dereferenceable(4) @.str.9, ptr noundef nonnull align 4 dereferenceable(4) %4, ptr noundef nonnull align 1 dereferenceable(33) @.str.39, ptr noundef nonnull align 4 dereferenceable(4) %5)
  invoke void @_ZN10open_spiel15SpielFatalErrorERKNSt7__cxx1112basic_stringIcSt11char_traitsIcESaIcEEE(ptr noundef nonnull align 8 dereferenceable(32) %6) #20
          to label %19 unwind label %20

19:                                               ; preds = %18
  unreachable

20:                                               ; preds = %18
  %21 = landingpad { ptr, i32 }
          cleanup
  br label %45

22:                                               ; preds = %2
  store i32 %1, ptr %8, align 4
  store i32 26043, ptr %9, align 4
  %23 = icmp ult i32 %1, 26043
  br i1 %23, label %28, label %24

24:                                               ; preds = %22
  store i32 686, ptr %11, align 4
  call void @_ZN10open_spiel8internal11SpielStrCatIJRA144_KcRA2_S2_iS6_RA25_S2_RA8_S2_RA4_S2_RiRA21_S2_SD_EEENSt7__cxx1112basic_stringIcSt11char_traitsIcESaIcEEEDpOT_(ptr dead_on_unwind nonnull writable sret(%"class.std::__cxx11::basic_string") align 8 %10, ptr noundef nonnull align 1 dereferenceable(144) @.str.4, ptr noundef nonnull align 1 dereferenceable(2) @.str.5, ptr noundef nonnull align 4 dereferenceable(4) %11, ptr noundef nonnull align 1 dereferenceable(2) @.str.6, ptr noundef nonnull align 1 dereferenceable(25) @.str.40, ptr noundef nonnull align 1 dereferenceable(8) @.str.18, ptr noundef nonnull align 1 dereferenceable(4) @.str.9, ptr noundef nonnull align 4 dereferenceable(4) %8, ptr noundef nonnull align 1 dereferenceable(21) @.str.41, ptr noundef nonnull align 4 dereferenceable(4) %9)
  invoke void @_ZN10open_spiel15SpielFatalErrorERKNSt7__cxx1112basic_stringIcSt11char_traitsIcESaIcEEE(ptr noundef nonnull align 8 dereferenceable(32) %10) #20
          to label %25 unwind label %26

25:                                               ; preds = %24
  unreachable

26:                                               ; preds = %24
  %27 = landingpad { ptr, i32 }
          cleanup
  br label %45

28:                                               ; preds = %22
  %29 = tail call { i64, i64 } @_ZN10open_spiel9dou_dizhu21GetAirplaneCombParamsEi(i32 noundef %1)
  %30 = extractvalue { i64, i64 } %29, 0
  %.sroa.3.0.extract.shift = lshr i64 %30, 32
  %.sroa.3.0.extract.trunc = trunc nuw i64 %.sroa.3.0.extract.shift to i32
  %31 = extractvalue { i64, i64 } %29, 1
  %.sroa.5.8.extract.trunc = trunc i64 %31 to i32
  %.sroa.7.8.extract.shift = lshr i64 %31, 32
  %.sroa.7.8.extract.trunc = trunc nuw i64 %.sroa.7.8.extract.shift to i32
  %32 = icmp sgt i32 %.sroa.3.0.extract.trunc, 0
  br i1 %32, label %.lr.ph.preheader, label %._crit_edge

.lr.ph.preheader:                                 ; preds = %28
  %sext = shl i64 %30, 32
  %33 = ashr exact i64 %sext, 32
  br label %.lr.ph

.lr.ph:                                           ; preds = %.lr.ph.preheader, %.lr.ph
  %indvars.iv = phi i64 [ 0, %.lr.ph.preheader ], [ %indvars.iv.next, %.lr.ph ]
  %34 = add nsw i64 %indvars.iv, %33
  %35 = getelementptr inbounds [15 x i32], ptr %3, i64 0, i64 %34
  store i32 3, ptr %35, align 4
  %36 = getelementptr inbounds [15 x i32], ptr %0, i64 0, i64 %34
  store i32 3, ptr %36, align 4
  %indvars.iv.next = add nuw nsw i64 %indvars.iv, 1
  %exitcond.not = icmp eq i64 %indvars.iv.next, %.sroa.3.0.extract.shift
  br i1 %exitcond.not, label %._crit_edge, label %.lr.ph, !llvm.loop !47

._crit_edge:                                      ; preds = %.lr.ph, %28
  store i32 0, ptr %12, align 4
  store ptr %3, ptr %13, align 8
  %37 = getelementptr inbounds nuw i8, ptr %13, i64 8
  store i64 15, ptr %37, align 8
  store ptr %0, ptr %14, align 8
  %38 = getelementptr inbounds nuw i8, ptr %14, i64 8
  store i64 15, ptr %38, align 8
  %39 = call noundef zeroext i1 @_ZN10open_spiel9dou_dizhu19dfs_airplane_kickerEiiiRiiN4absl7debian24SpanIiEES5_NS0_10KickerTypeE(i32 noundef %.sroa.3.0.extract.trunc, i32 noundef 0, i32 noundef %.sroa.7.8.extract.trunc, ptr noundef nonnull align 4 dereferenceable(4) %12, i32 noundef 14, ptr noundef nonnull byval(%"class.absl::debian2::Span.15") align 8 %13, ptr noundef nonnull byval(%"class.absl::debian2::Span.15") align 8 %14, i32 noundef %.sroa.5.8.extract.trunc)
  br i1 %39, label %44, label %40

40:                                               ; preds = %._crit_edge
  store i32 696, ptr %16, align 4
  call void @_ZN10open_spiel8internal11SpielStrCatIJRA144_KcRA2_S2_iRA13_S2_RA6_S2_S6_EEENSt7__cxx1112basic_stringIcSt11char_traitsIcESaIcEEEDpOT_(ptr dead_on_unwind nonnull writable sret(%"class.std::__cxx11::basic_string") align 8 %15, ptr noundef nonnull align 1 dereferenceable(144) @.str.4, ptr noundef nonnull align 1 dereferenceable(2) @.str.5, ptr noundef nonnull align 4 dereferenceable(4) %16, ptr noundef nonnull align 1 dereferenceable(13) @.str.53, ptr noundef nonnull align 1 dereferenceable(6) @.str.54, ptr noundef nonnull align 1 dereferenceable(2) @.str.44)
  invoke void @_ZN10open_spiel15SpielFatalErrorERKNSt7__cxx1112basic_stringIcSt11char_traitsIcESaIcEEE(ptr noundef nonnull align 8 dereferenceable(32) %15) #20
          to label %41 unwind label %42

41:                                               ; preds = %40
  unreachable

42:                                               ; preds = %40
  %43 = landingpad { ptr, i32 }
          cleanup
  br label %45

44:                                               ; preds = %._crit_edge
  ret void

45:                                               ; preds = %42, %26, %20
  %.sink = phi ptr [ %15, %42 ], [ %10, %26 ], [ %6, %20 ]
  %.pn = phi { ptr, i32 } [ %43, %42 ], [ %27, %26 ], [ %21, %20 ]
  call void @_ZNSt7__cxx1112basic_stringIcSt11char_traitsIcESaIcEED1Ev(ptr noundef nonnull align 8 dereferenceable(32) %.sink) #19
  resume { ptr, i32 } %.pn
}